target datalayout = "e-m:e-p270:32:32-p271:32:32-p272:64:64-i64:64-i128:128-f80:128-n8:16:32:64-S128"
target triple = "x86_64-pc-linux-gnu"

%struct.Sat_MmFixed_t_ = type { i32, i32, i32, i32, ptr, i32, i32, i32, ptr, i32, i32 }
%struct.Sat_MmStep_t_ = type { i32, ptr, i32, ptr, i32, i32, ptr }

; Function Attrs: nounwind uwtable
define ptr @Sat_MmFixedStart(i32 noundef %0) #0 {
  %2 = alloca i32, align 4
  %3 = alloca ptr, align 8
  store i32 %0, ptr %2, align 4, !tbaa !3
  call void @llvm.lifetime.start.p0(i64 8, ptr %3) #7
  %4 = call noalias ptr @malloc(i64 noundef 56) #8
  store ptr %4, ptr %3, align 8, !tbaa !7
  %5 = load ptr, ptr %3, align 8, !tbaa !7
  call void @llvm.memset.p0.i64(ptr align 8 %5, i8 0, i64 56, i1 false)
  %6 = load i32, ptr %2, align 4, !tbaa !3
  %7 = load ptr, ptr %3, align 8, !tbaa !7
  %8 = getelementptr inbounds nuw %struct.Sat_MmFixed_t_, ptr %7, i32 0, i32 0
  store i32 %6, ptr %8, align 8, !tbaa !10
  %9 = load ptr, ptr %3, align 8, !tbaa !7
  %10 = getelementptr inbounds nuw %struct.Sat_MmFixed_t_, ptr %9, i32 0, i32 1
  store i32 0, ptr %10, align 4, !tbaa !14
  %11 = load ptr, ptr %3, align 8, !tbaa !7
  %12 = getelementptr inbounds nuw %struct.Sat_MmFixed_t_, ptr %11, i32 0, i32 2
  store i32 0, ptr %12, align 8, !tbaa !15
  %13 = load ptr, ptr %3, align 8, !tbaa !7
  %14 = getelementptr inbounds nuw %struct.Sat_MmFixed_t_, ptr %13, i32 0, i32 4
  store ptr null, ptr %14, align 8, !tbaa !16
  %15 = load i32, ptr %2, align 4, !tbaa !3
  %16 = mul nsw i32 %15, 1024
  %17 = icmp slt i32 %16, 65536
  br i1 %17, label %18, label %21

18:                                               ; preds = %1
  %19 = load ptr, ptr %3, align 8, !tbaa !7
  %20 = getelementptr inbounds nuw %struct.Sat_MmFixed_t_, ptr %19, i32 0, i32 5
  store i32 1024, ptr %20, align 8, !tbaa !17
  br label %26

21:                                               ; preds = %1
  %22 = load i32, ptr %2, align 4, !tbaa !3
  %23 = sdiv i32 65536, %22
  %24 = load ptr, ptr %3, align 8, !tbaa !7
  %25 = getelementptr inbounds nuw %struct.Sat_MmFixed_t_, ptr %24, i32 0, i32 5
  store i32 %23, ptr %25, align 8, !tbaa !17
  br label %26

26:                                               ; preds = %21, %18
  %27 = load ptr, ptr %3, align 8, !tbaa !7
  %28 = getelementptr inbounds nuw %struct.Sat_MmFixed_t_, ptr %27, i32 0, i32 5
  %29 = load i32, ptr %28, align 8, !tbaa !17
  %30 = icmp slt i32 %29, 8
  br i1 %30, label %31, label %34

31:                                               ; preds = %26
  %32 = load ptr, ptr %3, align 8, !tbaa !7
  %33 = getelementptr inbounds nuw %struct.Sat_MmFixed_t_, ptr %32, i32 0, i32 5
  store i32 8, ptr %33, align 8, !tbaa !17
  br label %34

34:                                               ; preds = %31, %26
  %35 = load ptr, ptr %3, align 8, !tbaa !7
  %36 = getelementptr inbounds nuw %struct.Sat_MmFixed_t_, ptr %35, i32 0, i32 6
  store i32 64, ptr %36, align 4, !tbaa !18
  %37 = load ptr, ptr %3, align 8, !tbaa !7
  %38 = getelementptr inbounds nuw %struct.Sat_MmFixed_t_, ptr %37, i32 0, i32 7
  store i32 0, ptr %38, align 8, !tbaa !19
  %39 = load ptr, ptr %3, align 8, !tbaa !7
  %40 = getelementptr inbounds nuw %struct.Sat_MmFixed_t_, ptr %39, i32 0, i32 6
  %41 = load i32, ptr %40, align 4, !tbaa !18
  %42 = sext i32 %41 to i64
  %43 = mul i64 8, %42
  %44 = call noalias ptr @malloc(i64 noundef %43) #8
  %45 = load ptr, ptr %3, align 8, !tbaa !7
  %46 = getelementptr inbounds nuw %struct.Sat_MmFixed_t_, ptr %45, i32 0, i32 8
  store ptr %44, ptr %46, align 8, !tbaa !20
  %47 = load ptr, ptr %3, align 8, !tbaa !7
  %48 = getelementptr inbounds nuw %struct.Sat_MmFixed_t_, ptr %47, i32 0, i32 9
  store i32 0, ptr %48, align 8, !tbaa !21
  %49 = load ptr, ptr %3, align 8, !tbaa !7
  %50 = getelementptr inbounds nuw %struct.Sat_MmFixed_t_, ptr %49, i32 0, i32 10
  store i32 0, ptr %50, align 4, !tbaa !22
  %51 = load ptr, ptr %3, align 8, !tbaa !7
  call void @llvm.lifetime.end.p0(i64 8, ptr %3) #7
  ret ptr %51
}

; Function Attrs: nounwind uwtable
define ptr @Sat_MmStepStart(i32 noundef %0) #0 {
  %2 = alloca i32, align 4
  %3 = alloca ptr, align 8
  %4 = alloca i32, align 4
  %5 = alloca i32, align 4
  store i32 %0, ptr %2, align 4, !tbaa !3
  call void @llvm.lifetime.start.p0(i64 8, ptr %3) #7
  call void @llvm.lifetime.start.p0(i64 4, ptr %4) #7
  call void @llvm.lifetime.start.p0(i64 4, ptr %5) #7
  %6 = call noalias ptr @malloc(i64 noundef 48) #8
  store ptr %6, ptr %3, align 8, !tbaa !43
  %7 = load i32, ptr %2, align 4, !tbaa !3
  %8 = load ptr, ptr %3, align 8, !tbaa !43
  %9 = getelementptr inbounds nuw %struct.Sat_MmStep_t_, ptr %8, i32 0, i32 0
  store i32 %7, ptr %9, align 8, !tbaa !45
  %10 = load ptr, ptr %3, align 8, !tbaa !43
  %11 = getelementptr inbounds nuw %struct.Sat_MmStep_t_, ptr %10, i32 0, i32 0
  %12 = load i32, ptr %11, align 8, !tbaa !45
  %13 = sext i32 %12 to i64
  %14 = mul i64 8, %13
  %15 = call noalias ptr @malloc(i64 noundef %14) #8
  %16 = load ptr, ptr %3, align 8, !tbaa !43
  %17 = getelementptr inbounds nuw %struct.Sat_MmStep_t_, ptr %16, i32 0, i32 1
  store ptr %15, ptr %17, align 8, !tbaa !48
  store i32 0, ptr %4, align 4, !tbaa !3
  br label %18

18:                                               ; preds = %34, %1
  %19 = load i32, ptr %4, align 4, !tbaa !3
  %20 = load ptr, ptr %3, align 8, !tbaa !43
  %21 = getelementptr inbounds nuw %struct.Sat_MmStep_t_, ptr %20, i32 0, i32 0
  %22 = load i32, ptr %21, align 8, !tbaa !45
  %23 = icmp slt i32 %19, %22
  br i1 %23, label %24, label %37

24:                                               ; preds = %18
  %25 = load i32, ptr %4, align 4, !tbaa !3
  %26 = shl i32 8, %25
  %27 = call ptr @Sat_MmFixedStart(i32 noundef %26)
  %28 = load ptr, ptr %3, align 8, !tbaa !43
  %29 = getelementptr inbounds nuw %struct.Sat_MmStep_t_, ptr %28, i32 0, i32 1
  %30 = load ptr, ptr %29, align 8, !tbaa !48
  %31 = load i32, ptr %4, align 4, !tbaa !3
  %32 = sext i32 %31 to i64
  %33 = getelementptr inbounds ptr, ptr %30, i64 %32
  store ptr %27, ptr %33, align 8, !tbaa !7
  br label %34

34:                                               ; preds = %24
  %35 = load i32, ptr %4, align 4, !tbaa !3
  %36 = add nsw i32 %35, 1
  store i32 %36, ptr %4, align 4, !tbaa !3
  br label %18, !llvm.loop !49

37:                                               ; preds = %18
  %38 = load ptr, ptr %3, align 8, !tbaa !43
  %39 = getelementptr inbounds nuw %struct.Sat_MmStep_t_, ptr %38, i32 0, i32 0
  %40 = load i32, ptr %39, align 8, !tbaa !45
  %41 = shl i32 4, %40
  %42 = load ptr, ptr %3, align 8, !tbaa !43
  %43 = getelementptr inbounds nuw %struct.Sat_MmStep_t_, ptr %42, i32 0, i32 2
  store i32 %41, ptr %43, align 8, !tbaa !50
  %44 = load ptr, ptr %3, align 8, !tbaa !43
  %45 = getelementptr inbounds nuw %struct.Sat_MmStep_t_, ptr %44, i32 0, i32 2
  %46 = load i32, ptr %45, align 8, !tbaa !50
  %47 = add nsw i32 %46, 1
  %48 = sext i32 %47 to i64
  %49 = mul i64 8, %48
  %50 = call noalias ptr @malloc(i64 noundef %49) #8
  %51 = load ptr, ptr %3, align 8, !tbaa !43
  %52 = getelementptr inbounds nuw %struct.Sat_MmStep_t_, ptr %51, i32 0, i32 3
  store ptr %50, ptr %52, align 8, !tbaa !51
  %53 = load ptr, ptr %3, align 8, !tbaa !43
  %54 = getelementptr inbounds nuw %struct.Sat_MmStep_t_, ptr %53, i32 0, i32 3
  %55 = load ptr, ptr %54, align 8, !tbaa !51
  %56 = getelementptr inbounds ptr, ptr %55, i64 0
  store ptr null, ptr %56, align 8, !tbaa !7
  store i32 1, ptr %5, align 4, !tbaa !3
  br label %57

57:                                               ; preds = %72, %37
  %58 = load i32, ptr %5, align 4, !tbaa !3
  %59 = icmp sle i32 %58, 4
  br i1 %59, label %60, label %75

60:                                               ; preds = %57
  %61 = load ptr, ptr %3, align 8, !tbaa !43
  %62 = getelementptr inbounds nuw %struct.Sat_MmStep_t_, ptr %61, i32 0, i32 1
  %63 = load ptr, ptr %62, align 8, !tbaa !48
  %64 = getelementptr inbounds ptr, ptr %63, i64 0
  %65 = load ptr, ptr %64, align 8, !tbaa !7
  %66 = load ptr, ptr %3, align 8, !tbaa !43
  %67 = getelementptr inbounds nuw %struct.Sat_MmStep_t_, ptr %66, i32 0, i32 3
  %68 = load ptr, ptr %67, align 8, !tbaa !51
  %69 = load i32, ptr %5, align 4, !tbaa !3
  %70 = sext i32 %69 to i64
  %71 = getelementptr inbounds ptr, ptr %68, i64 %70
  store ptr %65, ptr %71, align 8, !tbaa !7
  br label %72

72:                                               ; preds = %60
  %73 = load i32, ptr %5, align 4, !tbaa !3
  %74 = add nsw i32 %73, 1
  store i32 %74, ptr %5, align 4, !tbaa !3
  br label %57, !llvm.loop !52

75:                                               ; preds = %57
  store i32 0, ptr %4, align 4, !tbaa !3
  br label %76

76:                                               ; preds = %109, %75
  %77 = load i32, ptr %4, align 4, !tbaa !3
  %78 = load ptr, ptr %3, align 8, !tbaa !43
  %79 = getelementptr inbounds nuw %struct.Sat_MmStep_t_, ptr %78, i32 0, i32 0
  %80 = load i32, ptr %79, align 8, !tbaa !45
  %81 = icmp slt i32 %77, %80
  br i1 %81, label %82, label %112

82:                                               ; preds = %76
  %83 = load i32, ptr %4, align 4, !tbaa !3
  %84 = shl i32 4, %83
  %85 = add nsw i32 %84, 1
  store i32 %85, ptr %5, align 4, !tbaa !3
  br label %86

86:                                               ; preds = %105, %82
  %87 = load i32, ptr %5, align 4, !tbaa !3
  %88 = load i32, ptr %4, align 4, !tbaa !3
  %89 = shl i32 8, %88
  %90 = icmp sle i32 %87, %89
  br i1 %90, label %91, label %108

91:                                               ; preds = %86
  %92 = load ptr, ptr %3, align 8, !tbaa !43
  %93 = getelementptr inbounds nuw %struct.Sat_MmStep_t_, ptr %92, i32 0, i32 1
  %94 = load ptr, ptr %93, align 8, !tbaa !48
  %95 = load i32, ptr %4, align 4, !tbaa !3
  %96 = sext i32 %95 to i64
  %97 = getelementptr inbounds ptr, ptr %94, i64 %96
  %98 = load ptr, ptr %97, align 8, !tbaa !7
  %99 = load ptr, ptr %3, align 8, !tbaa !43
  %100 = getelementptr inbounds nuw %struct.Sat_MmStep_t_, ptr %99, i32 0, i32 3
  %101 = load ptr, ptr %100, align 8, !tbaa !51
  %102 = load i32, ptr %5, align 4, !tbaa !3
  %103 = sext i32 %102 to i64
  %104 = getelementptr inbounds ptr, ptr %101, i64 %103
  store ptr %98, ptr %104, align 8, !tbaa !7
  br label %105

105:                                              ; preds = %91
  %106 = load i32, ptr %5, align 4, !tbaa !3
  %107 = add nsw i32 %106, 1
  store i32 %107, ptr %5, align 4, !tbaa !3
  br label %86, !llvm.loop !53

108:                                              ; preds = %86
  br label %109

109:                                              ; preds = %108
  %110 = load i32, ptr %4, align 4, !tbaa !3
  %111 = add nsw i32 %110, 1
  store i32 %111, ptr %4, align 4, !tbaa !3
  br label %76, !llvm.loop !54

112:                                              ; preds = %76
  %113 = load ptr, ptr %3, align 8, !tbaa !43
  %114 = getelementptr inbounds nuw %struct.Sat_MmStep_t_, ptr %113, i32 0, i32 4
  store i32 64, ptr %114, align 8, !tbaa !55
  %115 = load ptr, ptr %3, align 8, !tbaa !43
  %116 = getelementptr inbounds nuw %struct.Sat_MmStep_t_, ptr %115, i32 0, i32 5
  store i32 0, ptr %116, align 4, !tbaa !56
  %117 = load ptr, ptr %3, align 8, !tbaa !43
  %118 = getelementptr inbounds nuw %struct.Sat_MmStep_t_, ptr %117, i32 0, i32 4
  %119 = load i32, ptr %118, align 8, !tbaa !55
  %120 = sext i32 %119 to i64
  %121 = mul i64 8, %120
  %122 = call noalias ptr @malloc(i64 noundef %121) #8
  %123 = load ptr, ptr %3, align 8, !tbaa !43
  %124 = getelementptr inbounds nuw %struct.Sat_MmStep_t_, ptr %123, i32 0, i32 6
  store ptr %122, ptr %124, align 8, !tbaa !57
  %125 = load ptr, ptr %3, align 8, !tbaa !43
  call void @llvm.lifetime.end.p0(i64 4, ptr %5) #7
  call void @llvm.lifetime.end.p0(i64 4, ptr %4) #7
  call void @llvm.lifetime.end.p0(i64 8, ptr %3) #7
  ret ptr %125
}