; Function Attrs: nofree nounwind memory(readwrite, argmem: none) uwtable
define noalias noundef ptr @Sat_MmStepStart(i32 noundef %0) local_unnamed_addr #9 {
  %2 = tail call noalias dereferenceable_or_null(48) ptr @malloc(i64 noundef 48) #14
  store i32 %0, ptr %2, align 8, !tbaa !38
  %3 = sext i32 %0 to i64
  %4 = shl nsw i64 %3, 3
  %5 = tail call noalias ptr @malloc(i64 noundef %4) #14
  %6 = getelementptr inbounds nuw i8, ptr %2, i64 8
  store ptr %5, ptr %6, align 8, !tbaa !41
  %7 = icmp sgt i32 %0, 0
  br i1 %7, label %Sat_MmFixedStart.exit.preheader, label %._crit_edge

Sat_MmFixedStart.exit.preheader:                  ; preds = %1
  %wide.trip.count = zext nneg i32 %0 to i64
  br label %Sat_MmFixedStart.exit

Sat_MmFixedStart.exit:                            ; preds = %Sat_MmFixedStart.exit.preheader, %Sat_MmFixedStart.exit
  %indvars.iv = phi i64 [ 0, %Sat_MmFixedStart.exit.preheader ], [ %indvars.iv.next, %Sat_MmFixedStart.exit ]
  %8 = trunc nuw nsw i64 %indvars.iv to i32
  %9 = shl i32 8, %8
  %calloc.i = tail call dereferenceable_or_null(56) ptr @calloc(i64 1, i64 56)
  store i32 %9, ptr %calloc.i, align 8, !tbaa !3
  %10 = icmp slt i32 %9, 64
  %11 = lshr i32 8192, %8
  %12 = getelementptr inbounds nuw i8, ptr %calloc.i, i64 24
  %13 = tail call i32 @llvm.umax.i32(i32 %11, i32 8)
  %14 = select i1 %10, i32 1024, i32 %13
  store i32 %14, ptr %12, align 8
  %15 = getelementptr inbounds nuw i8, ptr %calloc.i, i64 28
  store i32 64, ptr %15, align 4, !tbaa !11
  %16 = getelementptr inbounds nuw i8, ptr %calloc.i, i64 32
  store i32 0, ptr %16, align 8, !tbaa !12
  %17 = tail call noalias dereferenceable_or_null(512) ptr @malloc(i64 noundef 512) #14
  %18 = getelementptr inbounds nuw i8, ptr %calloc.i, i64 40
  store ptr %17, ptr %18, align 8, !tbaa !13
  %19 = getelementptr inbounds nuw i8, ptr %calloc.i, i64 48
  store i32 0, ptr %19, align 8, !tbaa !14
  %20 = getelementptr inbounds nuw i8, ptr %calloc.i, i64 52
  store i32 0, ptr %20, align 4, !tbaa !15
  %21 = getelementptr inbounds nuw ptr, ptr %5, i64 %indvars.iv
  store ptr %calloc.i, ptr %21, align 8, !tbaa !42
  %indvars.iv.next = add nuw nsw i64 %indvars.iv, 1
  %exitcond.not = icmp eq i64 %indvars.iv.next, %wide.trip.count
  br i1 %exitcond.not, label %._crit_edge.loopexit, label %Sat_MmFixedStart.exit, !llvm.loop !44

._crit_edge.loopexit:                             ; preds = %Sat_MmFixedStart.exit
  %.pre = load ptr, ptr %5, align 8, !tbaa !42
  br label %._crit_edge

._crit_edge:                                      ; preds = %._crit_edge.loopexit, %1
  %22 = phi ptr [ %.pre, %._crit_edge.loopexit ], [ undef, %1 ]
  %23 = shl i32 4, %0
  %24 = getelementptr inbounds nuw i8, ptr %2, i64 16
  store i32 %23, ptr %24, align 8, !tbaa !45
  %25 = or disjoint i32 %23, 1
  %26 = sext i32 %25 to i64
  %27 = shl nsw i64 %26, 3
  %28 = tail call noalias ptr @malloc(i64 noundef %27) #14
  %29 = getelementptr inbounds nuw i8, ptr %2, i64 24
  store ptr %28, ptr %29, align 8, !tbaa !46
  store ptr null, ptr %28, align 8, !tbaa !42
  br label %30

.preheader:                                       ; preds = %30
  br i1 %7, label %.lr.ph45.preheader, label %._crit_edge46

.lr.ph45.preheader:                               ; preds = %.preheader
  %wide.trip.count59 = zext nneg i32 %0 to i64
  br label %.lr.ph45

30:                                               ; preds = %._crit_edge, %30
  %indvars.iv48 = phi i64 [ 1, %._crit_edge ], [ %indvars.iv.next49, %30 ]
  %31 = getelementptr inbounds nuw ptr, ptr %28, i64 %indvars.iv48
  store ptr %22, ptr %31, align 8, !tbaa !42
  %indvars.iv.next49 = add nuw nsw i64 %indvars.iv48, 1
  %exitcond51.not = icmp eq i64 %indvars.iv.next49, 5
  br i1 %exitcond51.not, label %.preheader, label %30, !llvm.loop !47

.lr.ph45:                                         ; preds = %.lr.ph45.preheader, %._crit_edge43
  %indvars.iv56 = phi i64 [ 0, %.lr.ph45.preheader ], [ %indvars.iv.next57, %._crit_edge43 ]
  %32 = trunc nuw nsw i64 %indvars.iv56 to i32
  %33 = shl i32 4, %32
  %34 = shl i32 8, %32
  %.not40.not = icmp slt i32 %33, %34
  br i1 %.not40.not, label %.lr.ph, label %._crit_edge43

.lr.ph:                                           ; preds = %.lr.ph45
  %35 = getelementptr inbounds nuw ptr, ptr %5, i64 %indvars.iv56
  %36 = load ptr, ptr %35, align 8, !tbaa !42
  %37 = or disjoint i32 %33, 1
  %38 = sext i32 %37 to i64
  %39 = or disjoint i32 %34, 1
  br label %40

40:                                               ; preds = %.lr.ph, %40
  %indvars.iv52 = phi i64 [ %38, %.lr.ph ], [ %indvars.iv.next53, %40 ]
  %41 = getelementptr inbounds ptr, ptr %28, i64 %indvars.iv52
  store ptr %36, ptr %41, align 8, !tbaa !42
  %indvars.iv.next53 = add nsw i64 %indvars.iv52, 1
  %lftr.wideiv = trunc i64 %indvars.iv.next53 to i32
  %exitcond55.not = icmp eq i32 %39, %lftr.wideiv
  br i1 %exitcond55.not, label %._crit_edge43, label %40, !llvm.loop !48

._crit_edge43:                                    ; preds = %40, %.lr.ph45
  %indvars.iv.next57 = add nuw nsw i64 %indvars.iv56, 1
  %exitcond60.not = icmp eq i64 %indvars.iv.next57, %wide.trip.count59
  br i1 %exitcond60.not, label %._crit_edge46, label %.lr.ph45, !llvm.loop !49

._crit_edge46:                                    ; preds = %._crit_edge43, %.preheader
  %42 = getelementptr inbounds nuw i8, ptr %2, i64 32
  store i32 64, ptr %42, align 8, !tbaa !50
  %43 = getelementptr inbounds nuw i8, ptr %2, i64 36
  store i32 0, ptr %43, align 4, !tbaa !51
  %44 = tail call noalias dereferenceable_or_null(512) ptr @malloc(i64 noundef 512) #14
  %45 = getelementptr inbounds nuw i8, ptr %2, i64 40
  store ptr %44, ptr %45, align 8, !tbaa !52
  ret ptr %2
}